; Function Attrs: mustprogress nofree norecurse nosync nounwind willreturn memory(argmem: read) uwtable
define range(i32 0, 2) i32 @SSL_SESSION_is_resumable(ptr noundef readonly captures(none) %0) local_unnamed_addr #6 {
  %2 = getelementptr inbounds nuw i8, ptr %0, i64 688
  %3 = load i32, ptr %2, align 8, !tbaa !90
  %.not = icmp eq i32 %3, 0
  br i1 %.not, label %4, label %12

4:                                                ; preds = %1
  %5 = getelementptr inbounds nuw i8, ptr %0, i64 592
  %6 = load i64, ptr %5, align 8, !tbaa !91
  %.not3 = icmp eq i64 %6, 0
  br i1 %.not3, label %7, label %12

7:                                                ; preds = %4
  %8 = getelementptr inbounds nuw i8, ptr %0, i64 816
  %9 = load i64, ptr %8, align 8, !tbaa !85
  %10 = icmp ne i64 %9, 0
  %11 = zext i1 %10 to i32
  br label %12

12:                                               ; preds = %4, %7, %1
  %13 = phi i32 [ 0, %1 ], [ 1, %4 ], [ %11, %7 ]
  ret i32 %13
}